; ModuleID = '17/1279.c'
source_filename = "17/1279.c"
target datalayout = "e-m:e-p270:32:32-p271:32:32-p272:64:64-i64:64-f80:128-n8:16:32:64-S128"
target triple = "x86_64-pc-linux-gnu"

; Function Attrs: noinline nounwind uwtable
define dso_local i32 @main() #0 {
  %1 = alloca i32, align 4
  %2 = alloca [110 x i8], align 16
  %3 = alloca i32, align 4
  %4 = alloca i32, align 4
  store i32 0, i32* %1, align 4
  br label %5

5:                                                ; preds = %75, %0
  %6 = getelementptr inbounds [110 x i8], [110 x i8]* %2, i64 0, i64 0
  %7 = call i32 (i8*, ...) bitcast (i32 (...)* @gets to i32 (i8*, ...)*)(i8* %6)
  %8 = sext i32 %7 to i64
  %9 = inttoptr i64 %8 to i8*
  %10 = icmp ne i8* %9, null
  br i1 %10, label %11, label %78

11:                                               ; preds = %5
  %12 = getelementptr inbounds [110 x i8], [110 x i8]* %2, i64 0, i64 0
  %13 = call i32 @puts(i8* %12)
  store i32 0, i32* %3, align 4
  br label %14

14:                                               ; preds = %72, %11
  %15 = load i32, i32* %3, align 4
  %16 = sext i32 %15 to i64
  %17 = getelementptr inbounds [110 x i8], [110 x i8]* %2, i64 0, i64 0
  %18 = call i64 @strlen(i8* %17) #3
  %19 = icmp ult i64 %16, %18
  br i1 %19, label %20, label %75

20:                                               ; preds = %14
  %21 = load i32, i32* %3, align 4
  %22 = sext i32 %21 to i64
  %23 = getelementptr inbounds [110 x i8], [110 x i8]* %2, i64 0, i64 %22
  %24 = load i8, i8* %23, align 1
  %25 = sext i8 %24 to i32
  %26 = icmp eq i32 %25, 40
  br i1 %26, label %27, label %31

27:                                               ; preds = %20
  %28 = load i32, i32* %3, align 4
  %29 = sext i32 %28 to i64
  %30 = getelementptr inbounds [110 x i8], [110 x i8]* %2, i64 0, i64 %29
  store i8 36, i8* %30, align 1
  br label %71

31:                                               ; preds = %20
  %32 = load i32, i32* %3, align 4
  %33 = sext i32 %32 to i64
  %34 = getelementptr inbounds [110 x i8], [110 x i8]* %2, i64 0, i64 %33
  %35 = load i8, i8* %34, align 1
  %36 = sext i8 %35 to i32
  %37 = icmp eq i32 %36, 41
  br i1 %37, label %38, label %66

38:                                               ; preds = %31
  %39 = load i32, i32* %3, align 4
  %40 = sext i32 %39 to i64
  %41 = getelementptr inbounds [110 x i8], [110 x i8]* %2, i64 0, i64 %40
  store i8 63, i8* %41, align 1
  %42 = load i32, i32* %3, align 4
  %43 = sub nsw i32 %42, 1
  store i32 %43, i32* %4, align 4
  br label %44

44:                                               ; preds = %62, %38
  %45 = load i32, i32* %4, align 4
  %46 = icmp sge i32 %45, 0
  br i1 %46, label %47, label %65

47:                                               ; preds = %44
  %48 = load i32, i32* %4, align 4
  %49 = sext i32 %48 to i64
  %50 = getelementptr inbounds [110 x i8], [110 x i8]* %2, i64 0, i64 %49
  %51 = load i8, i8* %50, align 1
  %52 = sext i8 %51 to i32
  %53 = icmp eq i32 %52, 36
  br i1 %53, label %54, label %61

54:                                               ; preds = %47
  %55 = load i32, i32* %4, align 4
  %56 = sext i32 %55 to i64
  %57 = getelementptr inbounds [110 x i8], [110 x i8]* %2, i64 0, i64 %56
  store i8 32, i8* %57, align 1
  %58 = load i32, i32* %3, align 4
  %59 = sext i32 %58 to i64
  %60 = getelementptr inbounds [110 x i8], [110 x i8]* %2, i64 0, i64 %59
  store i8 32, i8* %60, align 1
  br label %65

61:                                               ; preds = %47
  br label %62

62:                                               ; preds = %61
  %63 = load i32, i32* %4, align 4
  %64 = add nsw i32 %63, -1
  store i32 %64, i32* %4, align 4
  br label %44

65:                                               ; preds = %54, %44
  br label %70

66:                                               ; preds = %31
  %67 = load i32, i32* %3, align 4
  %68 = sext i32 %67 to i64
  %69 = getelementptr inbounds [110 x i8], [110 x i8]* %2, i64 0, i64 %68
  store i8 32, i8* %69, align 1
  br label %70

70:                                               ; preds = %66, %65
  br label %71

71:                                               ; preds = %70, %27
  br label %72

72:                                               ; preds = %71
  %73 = load i32, i32* %3, align 4
  %74 = add nsw i32 %73, 1
  store i32 %74, i32* %3, align 4
  br label %14

75:                                               ; preds = %14
  %76 = getelementptr inbounds [110 x i8], [110 x i8]* %2, i64 0, i64 0
  %77 = call i32 @puts(i8* %76)
  br label %5

78:                                               ; preds = %5
  %79 = load i32, i32* %1, align 4
  ret i32 %79
}

declare dso_local i32 @gets(...) #1

declare dso_local i32 @puts(i8*) #1

; Function Attrs: nounwind readonly
declare dso_local i64 @strlen(i8*) #2


!llvm.module.flags = !{!0}
!llvm.ident = !{!1}

!0 = !{i32 1, !"wchar_size", i32 4}
!1 = !{!"clang version 10.0.0-4ubuntu1 "}
